target datalayout = "e-m:e-p270:32:32-p271:32:32-p272:64:64-i64:64-i128:128-f80:128-n8:16:32:64-S128"
target triple = "x86_64-pc-linux-gnu"

%"class.icu_77::SimpleFilteredSentenceBreakData" = type <{ ptr, %"class.icu_77::LocalPointer", %"class.icu_77::LocalPointer", %"struct.std::atomic", [4 x i8] }>
%"class.icu_77::LocalPointer" = type { %"class.icu_77::LocalPointerBase" }
%"class.icu_77::LocalPointerBase" = type { ptr }
%"struct.std::atomic" = type { %"struct.std::__atomic_base" }
%"struct.std::__atomic_base" = type { i32 }
%"class.icu_77::SimpleFilteredSentenceBreakIterator" = type { %"class.icu_77::BreakIterator", ptr, %"class.icu_77::LocalPointer.0", %"class.icu_77::internal::LocalOpenPointer" }
%"class.icu_77::BreakIterator" = type { %"class.icu_77::UObject", ptr, ptr, ptr }
%"class.icu_77::UObject" = type { ptr }
%"class.icu_77::LocalPointer.0" = type { %"class.icu_77::LocalPointerBase.1" }
%"class.icu_77::LocalPointerBase.1" = type { ptr }
%"class.icu_77::internal::LocalOpenPointer" = type { %"class.icu_77::LocalPointerBase.2" }
%"class.icu_77::LocalPointerBase.2" = type { ptr }

; Function Attrs: alwaysinline mustprogress nounwind uwtable
define linkonce_odr noundef i32 @_ZNSt13__atomic_baseIiE9fetch_addEiSt12memory_order(ptr noundef nonnull align 4 dereferenceable(4) %0, i32 noundef %1, i32 noundef %2) #9 comdat align 2 {
  %4 = alloca ptr, align 8
  %5 = alloca i32, align 4
  %6 = alloca i32, align 4
  %7 = alloca i32, align 4
  %8 = alloca i32, align 4
  store ptr %0, ptr %4, align 8, !tbaa !127
  store i32 %1, ptr %5, align 4, !tbaa !46
  store i32 %2, ptr %6, align 4, !tbaa !129
  %9 = load ptr, ptr %4, align 8
  %10 = getelementptr inbounds nuw %"struct.std::__atomic_base", ptr %9, i32 0, i32 0
  %11 = load i32, ptr %6, align 4, !tbaa !129
  %12 = load i32, ptr %5, align 4, !tbaa !46
  store i32 %12, ptr %7, align 4, !tbaa !46
  switch i32 %11, label %13 [
    i32 1, label %16
    i32 2, label %16
    i32 3, label %19
    i32 4, label %22
    i32 5, label %25
  ]

13:                                               ; preds = %3
  %14 = load i32, ptr %7, align 4
  %15 = atomicrmw add ptr %10, i32 %14 monotonic, align 4
  store i32 %15, ptr %8, align 4
  br label %28

16:                                               ; preds = %3, %3
  %17 = load i32, ptr %7, align 4
  %18 = atomicrmw add ptr %10, i32 %17 acquire, align 4
  store i32 %18, ptr %8, align 4
  br label %28

19:                                               ; preds = %3
  %20 = load i32, ptr %7, align 4
  %21 = atomicrmw add ptr %10, i32 %20 release, align 4
  store i32 %21, ptr %8, align 4
  br label %28

22:                                               ; preds = %3
  %23 = load i32, ptr %7, align 4
  %24 = atomicrmw add ptr %10, i32 %23 acq_rel, align 4
  store i32 %24, ptr %8, align 4
  br label %28

25:                                               ; preds = %3
  %26 = load i32, ptr %7, align 4
  %27 = atomicrmw add ptr %10, i32 %26 seq_cst, align 4
  store i32 %27, ptr %8, align 4
  br label %28

28:                                               ; preds = %25, %22, %19, %16, %13
  %29 = load i32, ptr %8, align 4, !tbaa !46
  ret i32 %29
}

; Function Attrs: mustprogress nounwind uwtable
define linkonce_odr void @_ZN6icu_7716LocalPointerBaseINS_13BreakIteratorEED2Ev(ptr noundef nonnull align 8 dereferenceable(8) %0) unnamed_addr #1 comdat align 2 {
  %2 = alloca ptr, align 8
  store ptr %0, ptr %2, align 8, !tbaa !30
  ret void
}

; Function Attrs: mustprogress nounwind uwtable
define linkonce_odr void @_ZN6icu_7716LocalPointerBaseI5UTextEC2EPS1_(ptr noundef nonnull align 8 dereferenceable(8) %0, ptr noundef %1) unnamed_addr #1 comdat align 2 {
  %3 = alloca ptr, align 8
  %4 = alloca ptr, align 8
  store ptr %0, ptr %3, align 8, !tbaa !44
  store ptr %1, ptr %4, align 8, !tbaa !38
  %5 = load ptr, ptr %3, align 8
  %6 = getelementptr inbounds nuw %"class.icu_77::LocalPointerBase.2", ptr %5, i32 0, i32 0
  %7 = load ptr, ptr %4, align 8, !tbaa !38
  store ptr %7, ptr %6, align 8, !tbaa !43
  ret void
}

; Function Attrs: mustprogress nounwind uwtable
define linkonce_odr void @_ZN6icu_7716LocalPointerBaseINS_13BreakIteratorEEC2EPS1_(ptr noundef nonnull align 8 dereferenceable(8) %0, ptr noundef %1) unnamed_addr #1 comdat align 2 {
  %3 = alloca ptr, align 8
  %4 = alloca ptr, align 8
  store ptr %0, ptr %3, align 8, !tbaa !30
  store ptr %1, ptr %4, align 8, !tbaa !35
  %5 = load ptr, ptr %3, align 8
  %6 = getelementptr inbounds nuw %"class.icu_77::LocalPointerBase.1", ptr %5, i32 0, i32 0
  %7 = load ptr, ptr %4, align 8, !tbaa !35
  store ptr %7, ptr %6, align 8, !tbaa !32
  ret void
}

; Function Attrs: inlinehint mustprogress nounwind uwtable
define linkonce_odr noundef i32 @_ZN6icu_7715umtx_atomic_incEPSt6atomicIiE(ptr noundef %0) #5 comdat {
  %2 = alloca ptr, align 8
  store ptr %0, ptr %2, align 8, !tbaa !125
  %3 = load ptr, ptr %2, align 8, !tbaa !125
  %4 = call noundef i32 @_ZNSt13__atomic_baseIiE9fetch_addEiSt12memory_order(ptr noundef nonnull align 4 dereferenceable(4) %3, i32 noundef 1, i32 noundef 5) #13
  %5 = add nsw i32 %4, 1
  ret i32 %5
}

; Function Attrs: mustprogress nounwind uwtable
define linkonce_odr void @_ZN6icu_7712LocalPointerINS_13BreakIteratorEED2Ev(ptr noundef nonnull align 8 dereferenceable(8) %0) unnamed_addr #1 comdat align 2 {
  %2 = alloca ptr, align 8
  store ptr %0, ptr %2, align 8, !tbaa !33
  %3 = load ptr, ptr %2, align 8
  %4 = getelementptr inbounds nuw %"class.icu_77::LocalPointerBase.1", ptr %3, i32 0, i32 0
  %5 = load ptr, ptr %4, align 8, !tbaa !32
  %6 = icmp eq ptr %5, null
  br i1 %6, label %11, label %7

7:                                                ; preds = %1
  %8 = load ptr, ptr %5, align 8, !tbaa !10
  %9 = getelementptr inbounds ptr, ptr %8, i64 1
  %10 = load ptr, ptr %9, align 8
  call void %10(ptr noundef nonnull align 8 dereferenceable(32) %5) #13
  br label %11

11:                                               ; preds = %7, %1
  call void @_ZN6icu_7716LocalPointerBaseINS_13BreakIteratorEED2Ev(ptr noundef nonnull align 8 dereferenceable(8) %3) #13
  ret void
}

; Function Attrs: mustprogress uwtable
define linkonce_odr void @_ZN6icu_778internal16LocalOpenPointerI5UTextXadL_Z14utext_close_77EEEC2EPS2_(ptr noundef nonnull align 8 dereferenceable(8) %0, ptr noundef %1) unnamed_addr #2 comdat align 2 {
  %3 = alloca ptr, align 8
  %4 = alloca ptr, align 8
  store ptr %0, ptr %3, align 8, !tbaa !36
  store ptr %1, ptr %4, align 8, !tbaa !38
  %5 = load ptr, ptr %3, align 8
  %6 = load ptr, ptr %4, align 8, !tbaa !38
  call void @_ZN6icu_7716LocalPointerBaseI5UTextEC2EPS1_(ptr noundef nonnull align 8 dereferenceable(8) %5, ptr noundef %6)
  ret void
}

; Function Attrs: mustprogress uwtable
define linkonce_odr void @_ZN6icu_7712LocalPointerINS_13BreakIteratorEEC2EPS1_(ptr noundef nonnull align 8 dereferenceable(8) %0, ptr noundef %1) unnamed_addr #2 comdat align 2 {
  %3 = alloca ptr, align 8
  %4 = alloca ptr, align 8
  store ptr %0, ptr %3, align 8, !tbaa !33
  store ptr %1, ptr %4, align 8, !tbaa !35
  %5 = load ptr, ptr %3, align 8
  %6 = load ptr, ptr %4, align 8, !tbaa !35
  call void @_ZN6icu_7716LocalPointerBaseINS_13BreakIteratorEEC2EPS1_(ptr noundef nonnull align 8 dereferenceable(8) %5, ptr noundef %6)
  ret void
}

; Function Attrs: mustprogress nounwind uwtable
define linkonce_odr noundef ptr @_ZNK6icu_7716LocalPointerBaseINS_13BreakIteratorEEptEv(ptr noundef nonnull align 8 dereferenceable(8) %0) #1 comdat align 2 {
  %2 = alloca ptr, align 8
  store ptr %0, ptr %2, align 8, !tbaa !30
  %3 = load ptr, ptr %2, align 8
  %4 = getelementptr inbounds nuw %"class.icu_77::LocalPointerBase.1", ptr %3, i32 0, i32 0
  %5 = load ptr, ptr %4, align 8, !tbaa !32
  ret ptr %5
}

; Function Attrs: mustprogress uwtable
define linkonce_odr noundef ptr @_ZN6icu_7731SimpleFilteredSentenceBreakData4incrEv(ptr noundef nonnull align 8 dereferenceable(28) %0) #2 comdat align 2 {
  %2 = alloca ptr, align 8
  store ptr %0, ptr %2, align 8, !tbaa !8
  %3 = load ptr, ptr %2, align 8
  %4 = getelementptr inbounds nuw %"class.icu_77::SimpleFilteredSentenceBreakData", ptr %3, i32 0, i32 3
  %5 = call noundef i32 @_ZN6icu_7715umtx_atomic_incEPSt6atomicIiE(ptr noundef %4)
  ret ptr %3
}

; Function Attrs: mustprogress uwtable
define void @_ZN6icu_7735SimpleFilteredSentenceBreakIteratorC2ERKS0_(ptr noundef nonnull align 8 dereferenceable(56) %0, ptr noundef nonnull align 8 dereferenceable(56) %1) unnamed_addr #2 align 2 personality ptr @__gxx_personality_v0 {
  %3 = alloca ptr, align 8
  %4 = alloca ptr, align 8
  %5 = alloca ptr, align 8
  %6 = alloca i32, align 4
  store ptr %0, ptr %3, align 8, !tbaa !17
  store ptr %1, ptr %4, align 8, !tbaa !17
  %7 = load ptr, ptr %3, align 8
  %8 = load ptr, ptr %4, align 8, !tbaa !17
  call void @_ZN6icu_7713BreakIteratorC2ERKS0_(ptr noundef nonnull align 8 dereferenceable(32) %7, ptr noundef nonnull align 8 dereferenceable(32) %8)
  store ptr getelementptr inbounds inrange(-16, 184) ({ [25 x ptr] }, ptr @_ZTVN6icu_7735SimpleFilteredSentenceBreakIteratorE, i32 0, i32 0, i32 2), ptr %7, align 8, !tbaa !10
  %9 = getelementptr inbounds nuw %"class.icu_77::SimpleFilteredSentenceBreakIterator", ptr %7, i32 0, i32 1
  %10 = load ptr, ptr %4, align 8, !tbaa !17
  %11 = getelementptr inbounds nuw %"class.icu_77::SimpleFilteredSentenceBreakIterator", ptr %10, i32 0, i32 1
  %12 = load ptr, ptr %11, align 8, !tbaa !19
  %13 = invoke noundef ptr @_ZN6icu_7731SimpleFilteredSentenceBreakData4incrEv(ptr noundef nonnull align 8 dereferenceable(28) %12)
          to label %14 unwind label %28

14:                                               ; preds = %2
  store ptr %13, ptr %9, align 8, !tbaa !19
  %15 = getelementptr inbounds nuw %"class.icu_77::SimpleFilteredSentenceBreakIterator", ptr %7, i32 0, i32 2
  %16 = load ptr, ptr %4, align 8, !tbaa !17
  %17 = getelementptr inbounds nuw %"class.icu_77::SimpleFilteredSentenceBreakIterator", ptr %16, i32 0, i32 2
  %18 = invoke noundef ptr @_ZNK6icu_7716LocalPointerBaseINS_13BreakIteratorEEptEv(ptr noundef nonnull align 8 dereferenceable(8) %17)
          to label %19 unwind label %28

19:                                               ; preds = %14
  %20 = load ptr, ptr %18, align 8, !tbaa !10
  %21 = getelementptr inbounds ptr, ptr %20, i64 4
  %22 = load ptr, ptr %21, align 8
  %23 = invoke noundef ptr %22(ptr noundef nonnull align 8 dereferenceable(32) %18)
          to label %24 unwind label %28

24:                                               ; preds = %19
  invoke void @_ZN6icu_7712LocalPointerINS_13BreakIteratorEEC2EPS1_(ptr noundef nonnull align 8 dereferenceable(8) %15, ptr noundef %23)
          to label %25 unwind label %28

25:                                               ; preds = %24
  %26 = getelementptr inbounds nuw %"class.icu_77::SimpleFilteredSentenceBreakIterator", ptr %7, i32 0, i32 3
  invoke void @_ZN6icu_778internal16LocalOpenPointerI5UTextXadL_Z14utext_close_77EEEC2EPS2_(ptr noundef nonnull align 8 dereferenceable(8) %26, ptr noundef null)
          to label %27 unwind label %32

27:                                               ; preds = %25
  ret void

28:                                               ; preds = %24, %19, %14, %2
  %29 = landingpad { ptr, i32 }
          cleanup
  %30 = extractvalue { ptr, i32 } %29, 0
  store ptr %30, ptr %5, align 8
  %31 = extractvalue { ptr, i32 } %29, 1
  store i32 %31, ptr %6, align 4
  br label %36

32:                                               ; preds = %25
  %33 = landingpad { ptr, i32 }
          cleanup
  %34 = extractvalue { ptr, i32 } %33, 0
  store ptr %34, ptr %5, align 8
  %35 = extractvalue { ptr, i32 } %33, 1
  store i32 %35, ptr %6, align 4
  call void @_ZN6icu_7712LocalPointerINS_13BreakIteratorEED2Ev(ptr noundef nonnull align 8 dereferenceable(8) %15) #13
  br label %36

36:                                               ; preds = %32, %28
  call void @_ZN6icu_7713BreakIteratorD2Ev(ptr noundef nonnull align 8 dereferenceable(32) %7) #13
  br label %37

37:                                               ; preds = %36
  %38 = load ptr, ptr %5, align 8
  %39 = load i32, ptr %6, align 4
  %40 = insertvalue { ptr, i32 } poison, ptr %38, 0
  %41 = insertvalue { ptr, i32 } %40, i32 %39, 1
  resume { ptr, i32 } %41
}