; Function Attrs: mustprogress uwtable
define void @_ZN6icu_7735SimpleFilteredSentenceBreakIteratorC2ERKS0_(ptr noundef nonnull align 8 dereferenceable(56) %0, ptr noundef nonnull align 8 dereferenceable(56) %1) unnamed_addr #2 align 2 personality ptr @__gxx_personality_v0 {
  tail call void @_ZN6icu_7713BreakIteratorC2ERKS0_(ptr noundef nonnull align 8 dereferenceable(32) %0, ptr noundef nonnull align 8 dereferenceable(32) %1)
  store ptr getelementptr inbounds nuw inrange(-16, 184) (i8, ptr @_ZTVN6icu_7735SimpleFilteredSentenceBreakIteratorE, i64 16), ptr %0, align 8, !tbaa !3
  %3 = getelementptr inbounds nuw i8, ptr %1, i64 32
  %4 = load ptr, ptr %3, align 8, !tbaa !11
  %5 = getelementptr inbounds nuw i8, ptr %4, i64 24
  %6 = atomicrmw add ptr %5, i32 1 seq_cst, align 4
  %7 = getelementptr inbounds nuw i8, ptr %0, i64 32
  store ptr %4, ptr %7, align 8, !tbaa !11
  %8 = getelementptr inbounds nuw i8, ptr %1, i64 40
  %9 = load ptr, ptr %8, align 8, !tbaa !23
  %10 = load ptr, ptr %9, align 8, !tbaa !3
  %11 = getelementptr inbounds nuw i8, ptr %10, i64 32
  %12 = load ptr, ptr %11, align 8
  %13 = invoke noundef ptr %12(ptr noundef nonnull align 8 dereferenceable(32) %9)
          to label %14 unwind label %17

14:                                               ; preds = %2
  %15 = getelementptr inbounds nuw i8, ptr %0, i64 40
  store ptr %13, ptr %15, align 8, !tbaa !23
  %16 = getelementptr inbounds nuw i8, ptr %0, i64 48
  store ptr null, ptr %16, align 8, !tbaa !24
  ret void

17:                                               ; preds = %2
  %18 = landingpad { ptr, i32 }
          cleanup
  tail call void @_ZN6icu_7713BreakIteratorD2Ev(ptr noundef nonnull align 8 dereferenceable(32) %0) #14
  resume { ptr, i32 } %18
}